target datalayout = "e-m:e-p270:32:32-p271:32:32-p272:64:64-i64:64-i128:128-f80:128-n8:16:32:64-S128"
target triple = "x86_64-pc-linux-gnu"

; Function Attrs: nounwind uwtable
define internal void @eotf_bt1886_inv(double noundef %0, double noundef %1, ptr noundef %2) #0 {
  %4 = alloca double, align 8
  %5 = alloca double, align 8
  %6 = alloca ptr, align 8
  %7 = alloca double, align 8
  %8 = alloca double, align 8
  %9 = alloca double, align 8
  %10 = alloca double, align 8
  %11 = alloca i32, align 4
  store double %0, ptr %4, align 8, !tbaa !27
  store double %1, ptr %5, align 8, !tbaa !27
  store ptr %2, ptr %6, align 8, !tbaa !30
  call void @llvm.lifetime.start.p0(i64 8, ptr %7) #7
  %12 = load double, ptr %4, align 8, !tbaa !27
  %13 = call nsz double @llvm.pow.f64(double %12, double 0x3FDAAAAAAAAAAAAB)
  store double %13, ptr %7, align 8, !tbaa !27
  call void @llvm.lifetime.start.p0(i64 8, ptr %8) #7
  %14 = load double, ptr %5, align 8, !tbaa !27
  %15 = call nsz double @llvm.pow.f64(double %14, double 0x3FDAAAAAAAAAAAAB)
  store double %15, ptr %8, align 8, !tbaa !27
  call void @llvm.lifetime.start.p0(i64 8, ptr %9) #7
  %16 = load double, ptr %7, align 8, !tbaa !27
  %17 = load double, ptr %8, align 8, !tbaa !27
  %18 = fsub nsz double %16, %17
  %19 = call nsz double @llvm.pow.f64(double %18, double 2.400000e+00)
  store double %19, ptr %9, align 8, !tbaa !27
  call void @llvm.lifetime.start.p0(i64 8, ptr %10) #7
  %20 = load double, ptr %8, align 8, !tbaa !27
  %21 = load double, ptr %7, align 8, !tbaa !27
  %22 = load double, ptr %8, align 8, !tbaa !27
  %23 = fsub nsz double %21, %22
  %24 = fdiv nsz double %20, %23
  store double %24, ptr %10, align 8, !tbaa !27
  call void @llvm.lifetime.start.p0(i64 4, ptr %11) #7
  store i32 0, ptr %11, align 4, !tbaa !4
  br label %25

25:                                               ; preds = %54, %3
  %26 = load i32, ptr %11, align 4, !tbaa !4
  %27 = icmp slt i32 %26, 3
  br i1 %27, label %29, label %28

28:                                               ; preds = %25
  call void @llvm.lifetime.end.p0(i64 4, ptr %11) #7
  br label %57

29:                                               ; preds = %25
  %30 = load ptr, ptr %6, align 8, !tbaa !30
  %31 = load i32, ptr %11, align 4, !tbaa !4
  %32 = sext i32 %31 to i64
  %33 = getelementptr inbounds double, ptr %30, i64 %32
  %34 = load double, ptr %33, align 8, !tbaa !27
  %35 = fcmp nsz ogt double 0.000000e+00, %34
  br i1 %35, label %36, label %37

36:                                               ; preds = %29
  br label %48

37:                                               ; preds = %29
  %38 = load ptr, ptr %6, align 8, !tbaa !30
  %39 = load i32, ptr %11, align 4, !tbaa !4
  %40 = sext i32 %39 to i64
  %41 = getelementptr inbounds double, ptr %38, i64 %40
  %42 = load double, ptr %41, align 8, !tbaa !27
  %43 = load double, ptr %9, align 8, !tbaa !27
  %44 = fdiv nsz double %42, %43
  %45 = call nsz double @llvm.pow.f64(double %44, double 0x3FDAAAAAAAAAAAAB)
  %46 = load double, ptr %10, align 8, !tbaa !27
  %47 = fsub nsz double %45, %46
  br label %48

48:                                               ; preds = %37, %36
  %49 = phi nsz double [ 0.000000e+00, %36 ], [ %47, %37 ]
  %50 = load ptr, ptr %6, align 8, !tbaa !30
  %51 = load i32, ptr %11, align 4, !tbaa !4
  %52 = sext i32 %51 to i64
  %53 = getelementptr inbounds double, ptr %50, i64 %52
  store double %49, ptr %53, align 8, !tbaa !27
  br label %54

54:                                               ; preds = %48
  %55 = load i32, ptr %11, align 4, !tbaa !4
  %56 = add nsw i32 %55, 1
  store i32 %56, ptr %11, align 4, !tbaa !4
  br label %25, !llvm.loop !41

57:                                               ; preds = %28
  call void @llvm.lifetime.end.p0(i64 8, ptr %10) #7
  call void @llvm.lifetime.end.p0(i64 8, ptr %9) #7
  call void @llvm.lifetime.end.p0(i64 8, ptr %8) #7
  call void @llvm.lifetime.end.p0(i64 8, ptr %7) #7
  ret void
}