; Function Attrs: nofree norecurse nosync nounwind memory(argmem: readwrite) uwtable
define internal void @eotf_bt1886_inv(double noundef %0, double noundef %1, ptr noundef captures(none) %2) #5 {
  %4 = tail call nsz double @llvm.pow.f64(double %0, double 0x3FDAAAAAAAAAAAAB)
  %5 = tail call nsz double @llvm.pow.f64(double %1, double 0x3FDAAAAAAAAAAAAB)
  %6 = fsub nsz double %4, %5
  %7 = tail call nsz double @llvm.pow.f64(double %6, double 2.400000e+00)
  %8 = fdiv nsz double %5, %6
  br label %10

9:                                                ; preds = %18
  ret void

10:                                               ; preds = %3, %18
  %indvars.iv = phi i64 [ 0, %3 ], [ %indvars.iv.next, %18 ]
  %11 = getelementptr inbounds nuw double, ptr %2, i64 %indvars.iv
  %12 = load double, ptr %11, align 8, !tbaa !16
  %13 = fcmp nsz olt double %12, 0.000000e+00
  br i1 %13, label %18, label %14

14:                                               ; preds = %10
  %15 = fdiv nsz double %12, %7
  %16 = tail call nsz double @llvm.pow.f64(double %15, double 0x3FDAAAAAAAAAAAAB)
  %17 = fsub nsz double %16, %8
  br label %18

18:                                               ; preds = %10, %14
  %19 = phi nsz double [ %17, %14 ], [ 0.000000e+00, %10 ]
  store double %19, ptr %11, align 8, !tbaa !16
  %indvars.iv.next = add nuw nsw i64 %indvars.iv, 1
  %exitcond.not = icmp eq i64 %indvars.iv.next, 3
  br i1 %exitcond.not, label %9, label %10, !llvm.loop !29
}